target datalayout = "e-m:e-p270:32:32-p271:32:32-p272:64:64-i64:64-i128:128-f80:128-n8:16:32:64-S128"
target triple = "x86_64-pc-linux-gnu"

%class.QObject = type { ptr, %class.QScopedPointer }
%class.QScopedPointer = type { ptr }
%class.QPaintDevice = type { ptr, i16, ptr }
%class.SearchMenu = type { %class.MenuWithToolTip, ptr, ptr, i32, i32 }
%class.MenuWithToolTip = type { %class.QMenu }
%class.QMenu = type { %class.QWidget }
%class.QWidget = type { %class.QObject, %class.QPaintDevice, ptr }
%class.QSize = type { i32, i32 }

; Function Attrs: mustprogress nounwind uwtable
define linkonce_odr void @_ZN5QSizeC2Eii(ptr noundef nonnull align 4 dereferenceable(8) %0, i32 noundef %1, i32 noundef %2) unnamed_addr #1 comdat align 2 {
  %4 = alloca ptr, align 8
  %5 = alloca i32, align 4
  %6 = alloca i32, align 4
  store ptr %0, ptr %4, align 8
  store i32 %1, ptr %5, align 4
  store i32 %2, ptr %6, align 4
  %7 = load ptr, ptr %4, align 8
  %8 = getelementptr inbounds %class.QSize, ptr %7, i32 0, i32 0
  %9 = load i32, ptr %5, align 4
  store i32 %9, ptr %8, align 4
  %10 = getelementptr inbounds %class.QSize, ptr %7, i32 0, i32 1
  %11 = load i32, ptr %6, align 4
  store i32 %11, ptr %10, align 4
  ret void
}

; Function Attrs: mustprogress nounwind uwtable
define linkonce_odr noundef i32 @_ZNK5QSize6heightEv(ptr noundef nonnull align 4 dereferenceable(8) %0) #1 comdat align 2 {
  %2 = alloca ptr, align 8
  store ptr %0, ptr %2, align 8
  %3 = load ptr, ptr %2, align 8
  %4 = getelementptr inbounds %class.QSize, ptr %3, i32 0, i32 1
  %5 = load i32, ptr %4, align 4
  ret i32 %5
}

; Function Attrs: mustprogress uwtable
define i64 @_ZNK10SearchMenu8sizeHintEv(ptr noundef nonnull align 8 dereferenceable(72) %0) unnamed_addr #2 align 2 {
  %2 = alloca %class.QSize, align 4
  %3 = alloca ptr, align 8
  %4 = alloca i32, align 4
  %5 = alloca %class.QSize, align 4
  store ptr %0, ptr %3, align 8
  %6 = load ptr, ptr %3, align 8
  %7 = getelementptr inbounds %class.SearchMenu, ptr %6, i32 0, i32 4
  %8 = load i32, ptr %7, align 4
  %9 = icmp eq i32 %8, -1
  br i1 %9, label %10, label %12

10:                                               ; preds = %1
  %11 = call i64 @_ZNK5QMenu8sizeHintEv(ptr noundef nonnull align 8 dereferenceable(48) %6)
  store i64 %11, ptr %2, align 4
  br label %25

12:                                               ; preds = %1
  %13 = call noundef ptr @_ZNK7QWidget5styleEv(ptr noundef nonnull align 8 dereferenceable(48) %6)
  %14 = load ptr, ptr %13, align 8
  %15 = getelementptr inbounds ptr, ptr %14, i64 28
  %16 = load ptr, ptr %15, align 8
  %17 = call noundef i32 %16(ptr noundef nonnull align 8 dereferenceable(16) %13, i32 noundef 30, ptr noundef null, ptr noundef null)
  store i32 %17, ptr %4, align 4
  %18 = getelementptr inbounds %class.SearchMenu, ptr %6, i32 0, i32 4
  %19 = load i32, ptr %18, align 4
  %20 = load i32, ptr %4, align 4
  %21 = mul nsw i32 %20, 2
  %22 = add nsw i32 %19, %21
  %23 = call i64 @_ZNK5QMenu8sizeHintEv(ptr noundef nonnull align 8 dereferenceable(48) %6)
  store i64 %23, ptr %5, align 4
  %24 = call noundef i32 @_ZNK5QSize6heightEv(ptr noundef nonnull align 4 dereferenceable(8) %5) #9
  call void @_ZN5QSizeC2Eii(ptr noundef nonnull align 4 dereferenceable(8) %2, i32 noundef %22, i32 noundef %24) #9
  br label %25

25:                                               ; preds = %12, %10
  %26 = load i64, ptr %2, align 4
  ret i64 %26
}