; Function Attrs: mustprogress uwtable
define i64 @_ZNK10SearchMenu8sizeHintEv(ptr noundef nonnull align 8 dereferenceable(72) %0) unnamed_addr #2 align 2 {
  %2 = getelementptr inbounds i8, ptr %0, i64 68
  %3 = load i32, ptr %2, align 4
  %4 = icmp eq i32 %3, -1
  br i1 %4, label %5, label %7

5:                                                ; preds = %1
  %6 = tail call i64 @_ZNK5QMenu8sizeHintEv(ptr noundef nonnull align 8 dereferenceable(48) %0)
  %.sroa.01.0.extract.trunc = trunc i64 %6 to i32
  br label %17

7:                                                ; preds = %1
  %8 = tail call noundef ptr @_ZNK7QWidget5styleEv(ptr noundef nonnull align 8 dereferenceable(48) %0)
  %9 = load ptr, ptr %8, align 8
  %10 = getelementptr inbounds i8, ptr %9, i64 224
  %11 = load ptr, ptr %10, align 8
  %12 = tail call noundef i32 %11(ptr noundef nonnull align 8 dereferenceable(16) %8, i32 noundef 30, ptr noundef null, ptr noundef null)
  %13 = load i32, ptr %2, align 4
  %14 = shl nsw i32 %12, 1
  %15 = add nsw i32 %13, %14
  %16 = tail call i64 @_ZNK5QMenu8sizeHintEv(ptr noundef nonnull align 8 dereferenceable(48) %0)
  br label %17

17:                                               ; preds = %7, %5
  %.sroa.01.0 = phi i32 [ %.sroa.01.0.extract.trunc, %5 ], [ %15, %7 ]
  %.sroa.3.0.in.in = phi i64 [ %6, %5 ], [ %16, %7 ]
  %.sroa.3.0.in = and i64 %.sroa.3.0.in.in, -4294967296
  %.sroa.01.0.insert.ext = zext i32 %.sroa.01.0 to i64
  %.sroa.01.0.insert.insert = or disjoint i64 %.sroa.3.0.in, %.sroa.01.0.insert.ext
  ret i64 %.sroa.01.0.insert.insert
}